; Function Attrs: nounwind uwtable
define range(i32 0, 2) i32 @ossl_quic_wire_decode_frame_streams_blocked(ptr noundef captures(none) %0, ptr noundef writeonly captures(none) %1) local_unnamed_addr #2 {
  %3 = getelementptr i8, ptr %0, i64 8
  %.val.i.i.i = load i64, ptr %3, align 8, !tbaa !52
  %4 = icmp eq i64 %.val.i.i.i, 0
  br i1 %4, label %expect_frame_header_mask.exit.thread, label %5

5:                                                ; preds = %2
  %6 = load ptr, ptr %0, align 8, !tbaa !54
  %7 = load i8, ptr %6, align 1, !tbaa !55
  %8 = lshr i8 %7, 6
  %9 = zext nneg i8 %8 to i32
  %10 = shl nuw nsw i32 1, %9
  %11 = zext nneg i32 %10 to i64
  %12 = icmp ult i64 %.val.i.i.i, %11
  br i1 %12, label %expect_frame_header_mask.exit.thread, label %13

13:                                               ; preds = %5
  %14 = tail call i64 @ossl_quic_vlint_decode_unchecked(ptr noundef nonnull %6) #12
  %15 = load ptr, ptr %0, align 8, !tbaa !54
  %16 = getelementptr inbounds nuw i8, ptr %15, i64 %11
  store ptr %16, ptr %0, align 8, !tbaa !54
  %17 = load i64, ptr %3, align 8, !tbaa !52
  %18 = sub i64 %17, %11
  store i64 %18, ptr %3, align 8, !tbaa !52
  %19 = and i64 %14, -2
  %.not6.i = icmp ne i64 %19, 22
  %20 = icmp eq i64 %17, %11
  %or.cond = select i1 %.not6.i, i1 true, i1 %20
  br i1 %or.cond, label %expect_frame_header_mask.exit.thread, label %21

21:                                               ; preds = %13
  %22 = load i8, ptr %16, align 1, !tbaa !55
  %23 = lshr i8 %22, 6
  %24 = zext nneg i8 %23 to i32
  %25 = shl nuw nsw i32 1, %24
  %26 = zext nneg i32 %25 to i64
  %27 = icmp ult i64 %18, %26
  br i1 %27, label %expect_frame_header_mask.exit.thread, label %PACKET_get_quic_vlint.exit

PACKET_get_quic_vlint.exit:                       ; preds = %21
  %28 = tail call i64 @ossl_quic_vlint_decode_unchecked(ptr noundef nonnull %16) #12
  store i64 %28, ptr %1, align 8, !tbaa !56
  %29 = load ptr, ptr %0, align 8, !tbaa !54
  %30 = getelementptr inbounds nuw i8, ptr %29, i64 %26
  store ptr %30, ptr %0, align 8, !tbaa !54
  %31 = load i64, ptr %3, align 8, !tbaa !52
  %32 = sub i64 %31, %26
  store i64 %32, ptr %3, align 8, !tbaa !52
  br label %expect_frame_header_mask.exit.thread

expect_frame_header_mask.exit.thread:             ; preds = %5, %2, %13, %PACKET_get_quic_vlint.exit, %21
  %.0 = phi i32 [ 1, %PACKET_get_quic_vlint.exit ], [ 0, %21 ], [ 0, %13 ], [ 0, %2 ], [ 0, %5 ]
  ret i32 %.0
}